(dp0
S'info'
p1
I0
sS'function'
p2
I0
sS'error'
p3
I0
sS'by_msg'
p4
(dp5
sS'refactor'
p6
I0
sS'method'
p7
I0
sS'warning'
p8
I0
sS'module'
p9
I0
sS'statement'
p10
I2
sS'convention'
p11
I0
sS'fatal'
p12
I0
sS'class'
p13
I0
sS'by_module'
p14
(dp15
S'c9_pyl_HYIFJI'
p16
(dp17
g1
I0
sg11
I0
sg6
I0
sg8
I0
sg10
I0
sg3
I0
sg12
I0
sss.