(dp0
S'info'
p1
I0
sS'function'
p2
I0
sS'error'
p3
I7
sS'by_msg'
p4
(dp5
S'print-statement'
p6
I7
ssS'refactor'
p7
I0
sS'method'
p8
I0
sS'warning'
p9
I0
sS'module'
p10
I0
sS'statement'
p11
I17
sS'convention'
p12
I0
sS'fatal'
p13
I0
sS'class'
p14
I0
sS'by_module'
p15
(dp16
S'c9_pyl_cj7pOJ'
p17
(dp18
g1
I0
sg12
I0
sg7
I0
sg9
I0
sg11
I0
sg3
I7
sg13
I0
sss.