(dp0
S'info'
p1
I0
sS'function'
p2
I0
sS'error'
p3
I5
sS'by_msg'
p4
(dp5
S'print-statement'
p6
I4
sS'undefined-variable'
p7
I1
ssS'refactor'
p8
I0
sS'method'
p9
I0
sS'warning'
p10
I0
sS'module'
p11
I0
sS'statement'
p12
I14
sS'convention'
p13
I0
sS'fatal'
p14
I0
sS'class'
p15
I0
sS'by_module'
p16
(dp17
S'c9_pyl_fHSfEH'
p18
(dp19
g1
I0
sg13
I0
sg8
I0
sg10
I0
sg12
I0
sg3
I5
sg14
I0
sss.